target datalayout = "e-m:e-p270:32:32-p271:32:32-p272:64:64-i64:64-i128:128-f80:128-n8:16:32:64-S128"
target triple = "x86_64-pc-linux-gnu"

%"class.pxrInternal_v0_24__pxrReserved__::GfVec2d" = type { [2 x double] }
%"class.pxrInternal_v0_24__pxrReserved__::GfFrustum" = type { %"class.pxrInternal_v0_24__pxrReserved__::GfVec3d", %"class.pxrInternal_v0_24__pxrReserved__::GfRotation", %"class.pxrInternal_v0_24__pxrReserved__::GfRange2d", %"class.pxrInternal_v0_24__pxrReserved__::GfRange1d", double, i32, %"struct.std::atomic" }
%"class.pxrInternal_v0_24__pxrReserved__::GfVec3d" = type { [3 x double] }
%"class.pxrInternal_v0_24__pxrReserved__::GfRotation" = type { %"class.pxrInternal_v0_24__pxrReserved__::GfVec3d", double }
%"class.pxrInternal_v0_24__pxrReserved__::GfRange2d" = type { %"class.pxrInternal_v0_24__pxrReserved__::GfVec2d", %"class.pxrInternal_v0_24__pxrReserved__::GfVec2d" }
%"class.pxrInternal_v0_24__pxrReserved__::GfRange1d" = type { double, double }
%"struct.std::atomic" = type { %"struct.std::__atomic_base" }
%"struct.std::__atomic_base" = type { ptr }

; Function Attrs: mustprogress nounwind uwtable
define linkonce_odr void @_ZNSt13__atomic_baseIPSt5arrayIN32pxrInternal_v0_24__pxrReserved__7GfPlaneELm6EEEC2ES4_(ptr noundef nonnull align 8 dereferenceable(8) %0, ptr noundef %1) unnamed_addr #2 comdat align 2 {
  %3 = alloca ptr, align 8
  %4 = alloca ptr, align 8
  store ptr %0, ptr %3, align 8
  store ptr %1, ptr %4, align 8
  %5 = load ptr, ptr %3, align 8
  %6 = getelementptr inbounds nuw %"struct.std::__atomic_base", ptr %5, i32 0, i32 0
  %7 = load ptr, ptr %4, align 8
  store ptr %7, ptr %6, align 8
  ret void
}

; Function Attrs: mustprogress nounwind uwtable
define linkonce_odr void @_ZNSt6atomicIPSt5arrayIN32pxrInternal_v0_24__pxrReserved__7GfPlaneELm6EEEC2ES4_(ptr noundef nonnull align 8 dereferenceable(8) %0, ptr noundef %1) unnamed_addr #2 comdat align 2 {
  %3 = alloca ptr, align 8
  %4 = alloca ptr, align 8
  store ptr %0, ptr %3, align 8
  store ptr %1, ptr %4, align 8
  %5 = load ptr, ptr %3, align 8
  %6 = getelementptr inbounds nuw %"struct.std::atomic", ptr %5, i32 0, i32 0
  %7 = load ptr, ptr %4, align 8
  call void @_ZNSt13__atomic_baseIPSt5arrayIN32pxrInternal_v0_24__pxrReserved__7GfPlaneELm6EEEC2ES4_(ptr noundef nonnull align 8 dereferenceable(8) %6, ptr noundef %7) #11
  ret void
}

; Function Attrs: mustprogress nounwind uwtable
define linkonce_odr void @_ZN32pxrInternal_v0_24__pxrReserved__10GfRotationC2Ev(ptr noundef nonnull align 8 dereferenceable(32) %0) unnamed_addr #2 comdat align 2 {
  %2 = alloca ptr, align 8
  store ptr %0, ptr %2, align 8
  ret void
}

; Function Attrs: mustprogress uwtable
define void @_ZN32pxrInternal_v0_24__pxrReserved__9GfFrustumC2ERKNS_10GfMatrix4dERKNS_9GfRange2dERKNS_9GfRange1dENS0_14ProjectionTypeEd(ptr noundef nonnull align 8 dereferenceable(128) %0, ptr noundef nonnull align 8 dereferenceable(128) %1, ptr noundef nonnull align 8 dereferenceable(32) %2, ptr noundef nonnull align 8 dereferenceable(16) %3, i32 noundef %4, double noundef %5) unnamed_addr #0 align 2 {
  %7 = alloca ptr, align 8
  %8 = alloca ptr, align 8
  %9 = alloca ptr, align 8
  %10 = alloca ptr, align 8
  %11 = alloca i32, align 4
  %12 = alloca double, align 8
  store ptr %0, ptr %7, align 8
  store ptr %1, ptr %8, align 8
  store ptr %2, ptr %9, align 8
  store ptr %3, ptr %10, align 8
  store i32 %4, ptr %11, align 4
  store double %5, ptr %12, align 8
  %13 = load ptr, ptr %7, align 8
  %14 = getelementptr inbounds nuw %"class.pxrInternal_v0_24__pxrReserved__::GfFrustum", ptr %13, i32 0, i32 1
  call void @_ZN32pxrInternal_v0_24__pxrReserved__10GfRotationC2Ev(ptr noundef nonnull align 8 dereferenceable(32) %14)
  %15 = getelementptr inbounds nuw %"class.pxrInternal_v0_24__pxrReserved__::GfFrustum", ptr %13, i32 0, i32 2
  %16 = load ptr, ptr %9, align 8
  call void @llvm.memcpy.p0.p0.i64(ptr align 8 %15, ptr align 8 %16, i64 32, i1 false)
  %17 = getelementptr inbounds nuw %"class.pxrInternal_v0_24__pxrReserved__::GfFrustum", ptr %13, i32 0, i32 3
  %18 = load ptr, ptr %10, align 8
  call void @llvm.memcpy.p0.p0.i64(ptr align 8 %17, ptr align 8 %18, i64 16, i1 false)
  %19 = getelementptr inbounds nuw %"class.pxrInternal_v0_24__pxrReserved__::GfFrustum", ptr %13, i32 0, i32 4
  %20 = load double, ptr %12, align 8
  store double %20, ptr %19, align 8
  %21 = getelementptr inbounds nuw %"class.pxrInternal_v0_24__pxrReserved__::GfFrustum", ptr %13, i32 0, i32 5
  %22 = load i32, ptr %11, align 4
  store i32 %22, ptr %21, align 8
  %23 = getelementptr inbounds nuw %"class.pxrInternal_v0_24__pxrReserved__::GfFrustum", ptr %13, i32 0, i32 6
  call void @_ZNSt6atomicIPSt5arrayIN32pxrInternal_v0_24__pxrReserved__7GfPlaneELm6EEEC2ES4_(ptr noundef nonnull align 8 dereferenceable(8) %23, ptr noundef null) #11
  %24 = load ptr, ptr %8, align 8
  call void @_ZN32pxrInternal_v0_24__pxrReserved__9GfFrustum32SetPositionAndRotationFromMatrixERKNS_10GfMatrix4dE(ptr noundef nonnull align 8 dereferenceable(128) %13, ptr noundef nonnull align 8 dereferenceable(128) %24)
  ret void
}