; Function Attrs: mustprogress uwtable
define void @_ZN32pxrInternal_v0_24__pxrReserved__9GfFrustumC2ERKNS_10GfMatrix4dERKNS_9GfRange2dERKNS_9GfRange1dENS0_14ProjectionTypeEd(ptr nocapture noundef nonnull align 8 dereferenceable(128) %0, ptr nocapture noundef nonnull readonly align 8 dereferenceable(128) %1, ptr nocapture noundef nonnull readonly align 8 dereferenceable(32) %2, ptr nocapture noundef nonnull readonly align 8 dereferenceable(16) %3, i32 noundef %4, double noundef %5) unnamed_addr #0 align 2 {
  %7 = getelementptr inbounds nuw i8, ptr %0, i64 56
  tail call void @llvm.memcpy.p0.p0.i64(ptr noundef nonnull align 8 dereferenceable(32) %7, ptr noundef nonnull align 8 dereferenceable(32) %2, i64 32, i1 false)
  %8 = getelementptr inbounds nuw i8, ptr %0, i64 88
  tail call void @llvm.memcpy.p0.p0.i64(ptr noundef nonnull align 8 dereferenceable(16) %8, ptr noundef nonnull align 8 dereferenceable(16) %3, i64 16, i1 false)
  %9 = getelementptr inbounds nuw i8, ptr %0, i64 104
  store double %5, ptr %9, align 8
  %10 = getelementptr inbounds nuw i8, ptr %0, i64 112
  store i32 %4, ptr %10, align 8
  %11 = getelementptr inbounds nuw i8, ptr %0, i64 120
  store ptr null, ptr %11, align 8
  tail call void @_ZN32pxrInternal_v0_24__pxrReserved__9GfFrustum32SetPositionAndRotationFromMatrixERKNS_10GfMatrix4dE(ptr noundef nonnull align 8 dereferenceable(128) %0, ptr noundef nonnull align 8 dereferenceable(128) %1)
  ret void
}